; Function Attrs: mustprogress uwtable
define dso_local noalias noundef ptr @_ZNK3net15P256KeyExchange10NewKeyPairEPNS_10QuicRandomE(ptr nocapture nonnull readnone align 8 %this, ptr nocapture readnone %0) unnamed_addr #4 align 2 personality ptr @__gxx_personality_v0 {
entry:
  %private_value = alloca %"class.std::__cxx11::basic_string", align 8
  %agg.tmp = alloca %"class.base::BasicStringPiece", align 8
  call void @_ZN3net15P256KeyExchange13NewPrivateKeyB5cxx11Ev(ptr nonnull sret(%"class.std::__cxx11::basic_string") align 8 %private_value)
  invoke void @_ZN4base16BasicStringPieceINSt7__cxx1112basic_stringIcSt11char_traitsIcESaIcEEEEC1ERKS6_(ptr noundef nonnull align 8 dereferenceable(16) %agg.tmp, ptr noundef nonnull align 8 dereferenceable(32) %private_value)
          to label %invoke.cont unwind label %lpad

invoke.cont:                                      ; preds = %entry
  %1 = load ptr, ptr %agg.tmp, align 8
  %2 = getelementptr inbounds i8, ptr %agg.tmp, i64 8
  %3 = load i64, ptr %2, align 8
  %call = invoke noundef ptr @_ZN3net15P256KeyExchange3NewEN4base16BasicStringPieceINSt7__cxx1112basic_stringIcSt11char_traitsIcESaIcEEEEE(ptr %1, i64 %3)
          to label %invoke.cont2 unwind label %lpad

invoke.cont2:                                     ; preds = %invoke.cont
  call void @_ZNSt7__cxx1112basic_stringIcSt11char_traitsIcESaIcEED1Ev(ptr noundef nonnull align 8 dereferenceable(32) %private_value) #12
  ret ptr %call

lpad:                                             ; preds = %invoke.cont, %entry
  %4 = landingpad { ptr, i32 }
          cleanup
  call void @_ZNSt7__cxx1112basic_stringIcSt11char_traitsIcESaIcEED1Ev(ptr noundef nonnull align 8 dereferenceable(32) %private_value) #12
  resume { ptr, i32 } %4
}